target datalayout = "e-m:e-p270:32:32-p271:32:32-p272:64:64-i64:64-i128:128-f80:128-n8:16:32:64-S128"
target triple = "x86_64-pc-linux-gnu"

%class.QString = type { %struct.QArrayDataPointer }
%struct.QArrayDataPointer = type { ptr, ptr, i64 }
%class.ShowPacketBytesDialog = type { %class.WiresharkDialog.base, ptr, ptr, %class.QByteArray, %class.QString, %class.QString, ptr, ptr, ptr, i8, i32, i32, %class.QImage }
%class.WiresharkDialog.base = type <{ %class.GeometryStateDialog, ptr, i8, [7 x i8], %class.QString, %class.QList, i32, i8 }>
%class.GeometryStateDialog = type { %class.QDialog, %class.QString, ptr }
%class.QDialog = type { %class.QWidget }
%class.QWidget = type { %class.QObject, %class.QPaintDevice.base, ptr }
%class.QObject = type { ptr, %class.QScopedPointer }
%class.QScopedPointer = type { ptr }
%class.QPaintDevice.base = type <{ ptr, i16 }>
%class.QList = type { %struct.QArrayDataPointer.0 }
%struct.QArrayDataPointer.0 = type { ptr, ptr, i64 }
%class.QByteArray = type { %struct.QArrayDataPointer.1 }
%struct.QArrayDataPointer.1 = type { ptr, ptr, i64 }
%class.QImage = type { %class.QPaintDevice.base, ptr }
%class.Ui_ShowPacketBytesDialog = type { ptr, ptr, ptr, ptr, ptr, ptr, ptr, ptr, ptr, ptr, ptr, ptr, ptr, ptr, ptr, ptr, ptr, ptr, ptr }

; Function Attrs: mustprogress null_pointer_is_valid sspstrong uwtable
define void @_ZN21ShowPacketBytesDialog14setStartAndEndEii(ptr noundef align 8 dereferenceable_or_null(296) %0, i32 noundef %1, i32 noundef %2) #0 align 2 {
  %4 = alloca ptr, align 8
  %5 = alloca i32, align 4
  %6 = alloca i32, align 4
  store ptr %0, ptr %4, align 8
  store i32 %1, ptr %5, align 4
  store i32 %2, ptr %6, align 4
  %7 = load ptr, ptr %4, align 8
  %8 = load i32, ptr %5, align 4
  %9 = getelementptr inbounds nuw %class.ShowPacketBytesDialog, ptr %7, i32 0, i32 10
  store i32 %8, ptr %9, align 4
  %10 = load i32, ptr %6, align 4
  %11 = getelementptr inbounds nuw %class.ShowPacketBytesDialog, ptr %7, i32 0, i32 11
  store i32 %10, ptr %11, align 8
  %12 = getelementptr inbounds nuw %class.ShowPacketBytesDialog, ptr %7, i32 0, i32 1
  %13 = load ptr, ptr %12, align 8
  %14 = getelementptr inbounds nuw %class.Ui_ShowPacketBytesDialog, ptr %13, i32 0, i32 10
  %15 = load ptr, ptr %14, align 8
  %16 = call noundef zeroext i1 @_ZN7QObject12blockSignalsEb(ptr noundef align 8 dereferenceable_or_null(16) %15, i1 noundef zeroext true) #13
  %17 = getelementptr inbounds nuw %class.ShowPacketBytesDialog, ptr %7, i32 0, i32 1
  %18 = load ptr, ptr %17, align 8
  %19 = getelementptr inbounds nuw %class.Ui_ShowPacketBytesDialog, ptr %18, i32 0, i32 10
  %20 = load ptr, ptr %19, align 8
  %21 = getelementptr inbounds nuw %class.ShowPacketBytesDialog, ptr %7, i32 0, i32 11
  %22 = load i32, ptr %21, align 8
  call void @_ZN8QSpinBox10setMaximumEi(ptr noundef align 8 dereferenceable_or_null(40) %20, i32 noundef %22)
  %23 = getelementptr inbounds nuw %class.ShowPacketBytesDialog, ptr %7, i32 0, i32 1
  %24 = load ptr, ptr %23, align 8
  %25 = getelementptr inbounds nuw %class.Ui_ShowPacketBytesDialog, ptr %24, i32 0, i32 10
  %26 = load ptr, ptr %25, align 8
  %27 = getelementptr inbounds nuw %class.ShowPacketBytesDialog, ptr %7, i32 0, i32 10
  %28 = load i32, ptr %27, align 4
  call void @_ZN8QSpinBox8setValueEi(ptr noundef align 8 dereferenceable_or_null(40) %26, i32 noundef %28)
  %29 = getelementptr inbounds nuw %class.ShowPacketBytesDialog, ptr %7, i32 0, i32 1
  %30 = load ptr, ptr %29, align 8
  %31 = getelementptr inbounds nuw %class.Ui_ShowPacketBytesDialog, ptr %30, i32 0, i32 10
  %32 = load ptr, ptr %31, align 8
  %33 = call noundef zeroext i1 @_ZN7QObject12blockSignalsEb(ptr noundef align 8 dereferenceable_or_null(16) %32, i1 noundef zeroext false) #13
  %34 = getelementptr inbounds nuw %class.ShowPacketBytesDialog, ptr %7, i32 0, i32 1
  %35 = load ptr, ptr %34, align 8
  %36 = getelementptr inbounds nuw %class.Ui_ShowPacketBytesDialog, ptr %35, i32 0, i32 12
  %37 = load ptr, ptr %36, align 8
  %38 = call noundef zeroext i1 @_ZN7QObject12blockSignalsEb(ptr noundef align 8 dereferenceable_or_null(16) %37, i1 noundef zeroext true) #13
  %39 = getelementptr inbounds nuw %class.ShowPacketBytesDialog, ptr %7, i32 0, i32 1
  %40 = load ptr, ptr %39, align 8
  %41 = getelementptr inbounds nuw %class.Ui_ShowPacketBytesDialog, ptr %40, i32 0, i32 12
  %42 = load ptr, ptr %41, align 8
  %43 = getelementptr inbounds nuw %class.ShowPacketBytesDialog, ptr %7, i32 0, i32 10
  %44 = load i32, ptr %43, align 4
  call void @_ZN8QSpinBox10setMinimumEi(ptr noundef align 8 dereferenceable_or_null(40) %42, i32 noundef %44)
  %45 = getelementptr inbounds nuw %class.ShowPacketBytesDialog, ptr %7, i32 0, i32 1
  %46 = load ptr, ptr %45, align 8
  %47 = getelementptr inbounds nuw %class.Ui_ShowPacketBytesDialog, ptr %46, i32 0, i32 12
  %48 = load ptr, ptr %47, align 8
  %49 = getelementptr inbounds nuw %class.ShowPacketBytesDialog, ptr %7, i32 0, i32 11
  %50 = load i32, ptr %49, align 8
  call void @_ZN8QSpinBox8setValueEi(ptr noundef align 8 dereferenceable_or_null(40) %48, i32 noundef %50)
  %51 = getelementptr inbounds nuw %class.ShowPacketBytesDialog, ptr %7, i32 0, i32 1
  %52 = load ptr, ptr %51, align 8
  %53 = getelementptr inbounds nuw %class.Ui_ShowPacketBytesDialog, ptr %52, i32 0, i32 12
  %54 = load ptr, ptr %53, align 8
  %55 = call noundef zeroext i1 @_ZN7QObject12blockSignalsEb(ptr noundef align 8 dereferenceable_or_null(16) %54, i1 noundef zeroext false) #13
  call void @_ZN21ShowPacketBytesDialog15updateHintLabelEv(ptr noundef align 8 dereferenceable_or_null(296) %7)
  ret void
}