; Function Attrs: mustprogress null_pointer_is_valid sspstrong uwtable
define void @_ZN21ShowPacketBytesDialog14setStartAndEndEii(ptr noundef align 8 dereferenceable_or_null(296) initializes((260, 268)) %0, i32 noundef %1, i32 noundef %2) local_unnamed_addr #0 align 2 {
  %4 = getelementptr inbounds nuw i8, ptr %0, i64 260
  store i32 %1, ptr %4, align 4
  %5 = getelementptr inbounds nuw i8, ptr %0, i64 264
  store i32 %2, ptr %5, align 8
  %6 = getelementptr inbounds nuw i8, ptr %0, i64 144
  %7 = load ptr, ptr %6, align 8
  %8 = getelementptr inbounds nuw i8, ptr %7, i64 80
  %9 = load ptr, ptr %8, align 8
  %10 = tail call noundef zeroext i1 @_ZN7QObject12blockSignalsEb(ptr noundef align 8 dereferenceable_or_null(16) %9, i1 noundef zeroext true) #28
  %11 = load ptr, ptr %6, align 8
  %12 = getelementptr inbounds nuw i8, ptr %11, i64 80
  %13 = load ptr, ptr %12, align 8
  %14 = load i32, ptr %5, align 8
  tail call void @_ZN8QSpinBox10setMaximumEi(ptr noundef align 8 dereferenceable_or_null(40) %13, i32 noundef %14)
  %15 = load ptr, ptr %6, align 8
  %16 = getelementptr inbounds nuw i8, ptr %15, i64 80
  %17 = load ptr, ptr %16, align 8
  %18 = load i32, ptr %4, align 4
  tail call void @_ZN8QSpinBox8setValueEi(ptr noundef align 8 dereferenceable_or_null(40) %17, i32 noundef %18)
  %19 = load ptr, ptr %6, align 8
  %20 = getelementptr inbounds nuw i8, ptr %19, i64 80
  %21 = load ptr, ptr %20, align 8
  %22 = tail call noundef zeroext i1 @_ZN7QObject12blockSignalsEb(ptr noundef align 8 dereferenceable_or_null(16) %21, i1 noundef zeroext false) #28
  %23 = load ptr, ptr %6, align 8
  %24 = getelementptr inbounds nuw i8, ptr %23, i64 96
  %25 = load ptr, ptr %24, align 8
  %26 = tail call noundef zeroext i1 @_ZN7QObject12blockSignalsEb(ptr noundef align 8 dereferenceable_or_null(16) %25, i1 noundef zeroext true) #28
  %27 = load ptr, ptr %6, align 8
  %28 = getelementptr inbounds nuw i8, ptr %27, i64 96
  %29 = load ptr, ptr %28, align 8
  %30 = load i32, ptr %4, align 4
  tail call void @_ZN8QSpinBox10setMinimumEi(ptr noundef align 8 dereferenceable_or_null(40) %29, i32 noundef %30)
  %31 = load ptr, ptr %6, align 8
  %32 = getelementptr inbounds nuw i8, ptr %31, i64 96
  %33 = load ptr, ptr %32, align 8
  %34 = load i32, ptr %5, align 8
  tail call void @_ZN8QSpinBox8setValueEi(ptr noundef align 8 dereferenceable_or_null(40) %33, i32 noundef %34)
  %35 = load ptr, ptr %6, align 8
  %36 = getelementptr inbounds nuw i8, ptr %35, i64 96
  %37 = load ptr, ptr %36, align 8
  %38 = tail call noundef zeroext i1 @_ZN7QObject12blockSignalsEb(ptr noundef align 8 dereferenceable_or_null(16) %37, i1 noundef zeroext false) #28
  tail call void @_ZN21ShowPacketBytesDialog15updateHintLabelEv(ptr noundef align 8 dereferenceable_or_null(296) %0)
  ret void
}